; Function Attrs: mustprogress nounwind uwtable
define internal fastcc noundef zeroext i1 @_ZN5clang19RecursiveASTVisitorIN12_GLOBAL__N_120FindSuperCallVisitorEE26TraverseAcquiredBeforeAttrEPNS_18AcquiredBeforeAttrE(ptr noundef nonnull align 1 dereferenceable(1) %0, ptr nocapture noundef readonly %1) unnamed_addr #0 align 2 {
  %3 = getelementptr inbounds nuw i8, ptr %1, i64 40
  %4 = load ptr, ptr %3, align 8
  %5 = getelementptr inbounds nuw i8, ptr %1, i64 36
  %6 = load i32, ptr %5, align 4
  %7 = zext i32 %6 to i64
  %8 = getelementptr inbounds ptr, ptr %4, i64 %7
  %.not11 = icmp eq i32 %6, 0
  br i1 %.not11, label %._crit_edge, label %.lr.ph

.lr.ph:                                           ; preds = %2, %.lr.ph
  %.01012 = phi ptr [ %11, %.lr.ph ], [ %4, %2 ]
  %9 = load ptr, ptr %.01012, align 8
  %10 = tail call fastcc noundef zeroext i1 @_ZN5clang19RecursiveASTVisitorIN12_GLOBAL__N_120FindSuperCallVisitorEE12TraverseStmtEPNS_4StmtEPN4llvm15SmallVectorImplINS6_14PointerIntPairIS5_Lj1EbNS6_21PointerLikeTypeTraitsIS5_EENS6_18PointerIntPairInfoIS5_Lj1ESA_EEEEEE(ptr noundef nonnull align 1 dereferenceable(1) %0, ptr noundef %9, ptr noundef null)
  %11 = getelementptr inbounds i8, ptr %.01012, i64 8
  %.not = icmp ne ptr %11, %8
  %or.cond.not = select i1 %10, i1 %.not, i1 false
  br i1 %or.cond.not, label %.lr.ph, label %._crit_edge, !llvm.loop !98

._crit_edge:                                      ; preds = %.lr.ph, %2
  %.not.lcssa = phi i1 [ true, %2 ], [ %10, %.lr.ph ]
  ret i1 %.not.lcssa
}